; Function Attrs: mustprogress uwtable
define noundef zeroext i1 @_ZNK7Imf_3_410IDManifestneERKS0_(ptr noundef nonnull readonly align 8 captures(none) dereferenceable(24) %0, ptr noundef nonnull readonly align 8 captures(none) dereferenceable(24) %1) local_unnamed_addr #6 align 2 {
  %3 = getelementptr inbounds nuw i8, ptr %1, i64 8
  %4 = load ptr, ptr %3, align 8, !tbaa !40
  %5 = load ptr, ptr %1, align 8, !tbaa !37
  %6 = ptrtoint ptr %4 to i64
  %7 = ptrtoint ptr %5 to i64
  %8 = sub i64 %6, %7
  %9 = getelementptr inbounds nuw i8, ptr %0, i64 8
  %10 = load ptr, ptr %9, align 8, !tbaa !40
  %11 = load ptr, ptr %0, align 8, !tbaa !37
  %12 = ptrtoint ptr %10 to i64
  %13 = ptrtoint ptr %11 to i64
  %14 = sub i64 %12, %13
  %15 = icmp eq i64 %8, %14
  br i1 %15, label %16, label %_ZNK7Imf_3_410IDManifesteqERKS0_.exit

16:                                               ; preds = %2
  %.not9.i.i.i.i.i.i = icmp eq ptr %5, %4
  br i1 %.not9.i.i.i.i.i.i, label %_ZNK7Imf_3_410IDManifesteqERKS0_.exit, label %.lr.ph.i.i.i.i.i.i

.lr.ph.i.i.i.i.i.i:                               ; preds = %16, %.lr.ph.i.i.i.i.i.i
  %.011.i.i.i.i.i.i = phi ptr [ %19, %.lr.ph.i.i.i.i.i.i ], [ %11, %16 ]
  %.0810.i.i.i.i.i.i = phi ptr [ %18, %.lr.ph.i.i.i.i.i.i ], [ %5, %16 ]
  %17 = tail call noundef zeroext i1 @_ZNK7Imf_3_410IDManifest20ChannelGroupManifesteqERKS1_(ptr noundef nonnull align 8 dereferenceable(201) %.0810.i.i.i.i.i.i, ptr noundef nonnull align 8 dereferenceable(201) %.011.i.i.i.i.i.i)
  %18 = getelementptr inbounds nuw i8, ptr %.0810.i.i.i.i.i.i, i64 208
  %19 = getelementptr inbounds nuw i8, ptr %.011.i.i.i.i.i.i, i64 208
  %.not.i.i.i.i.i.i = icmp ne ptr %18, %4
  %or.cond.not = select i1 %17, i1 %.not.i.i.i.i.i.i, i1 false
  br i1 %or.cond.not, label %.lr.ph.i.i.i.i.i.i, label %_ZNK7Imf_3_410IDManifesteqERKS0_.exit.loopexit, !llvm.loop !171

_ZNK7Imf_3_410IDManifesteqERKS0_.exit.loopexit:   ; preds = %.lr.ph.i.i.i.i.i.i
  %.ph = xor i1 %17, true
  br label %_ZNK7Imf_3_410IDManifesteqERKS0_.exit

_ZNK7Imf_3_410IDManifesteqERKS0_.exit:            ; preds = %_ZNK7Imf_3_410IDManifesteqERKS0_.exit.loopexit, %2, %16
  %20 = phi i1 [ true, %2 ], [ false, %16 ], [ %.ph, %_ZNK7Imf_3_410IDManifesteqERKS0_.exit.loopexit ]
  ret i1 %20
}